; Function Attrs: mustprogress nofree norecurse nosync nounwind willreturn memory(argmem: write) uwtable
define hidden void @SDL_SetTrayEntryCallback_REAL(ptr noundef writeonly captures(address_is_null) %0, ptr noundef %1, ptr noundef %2) local_unnamed_addr #7 {
  %.not = icmp eq ptr %0, null
  br i1 %.not, label %7, label %4

4:                                                ; preds = %3
  %5 = getelementptr inbounds nuw i8, ptr %0, i64 24
  store ptr %1, ptr %5, align 8
  %6 = getelementptr inbounds nuw i8, ptr %0, i64 32
  store ptr %2, ptr %6, align 8
  br label %7

7:                                                ; preds = %3, %4
  ret void
}